target datalayout = "e-m:e-p270:32:32-p271:32:32-p272:64:64-i64:64-i128:128-f80:128-n8:16:32:64-S128"
target triple = "x86_64-pc-linux-gnu"

%struct.anon = type { ptr, i32 }

@.str = private unnamed_addr constant [1 x i8] zeroinitializer, align 1
@advice_enabled.globally_enabled = internal global i32 -1, align 4
@.str.1 = private unnamed_addr constant [11 x i8] c"GIT_ADVICE\00", align 1
@.str.5 = private unnamed_addr constant [12 x i8] c"cherry-pick\00", align 1
@.str.6 = private unnamed_addr constant [64 x i8] c"Cherry-picking is not possible because you have unmerged files.\00", align 1
@.str.7 = private unnamed_addr constant [7 x i8] c"commit\00", align 1
@.str.8 = private unnamed_addr constant [60 x i8] c"Committing is not possible because you have unmerged files.\00", align 1
@.str.9 = private unnamed_addr constant [6 x i8] c"merge\00", align 1
@.str.10 = private unnamed_addr constant [57 x i8] c"Merging is not possible because you have unmerged files.\00", align 1
@.str.11 = private unnamed_addr constant [5 x i8] c"pull\00", align 1
@.str.12 = private unnamed_addr constant [57 x i8] c"Pulling is not possible because you have unmerged files.\00", align 1
@.str.13 = private unnamed_addr constant [7 x i8] c"revert\00", align 1
@.str.14 = private unnamed_addr constant [59 x i8] c"Reverting is not possible because you have unmerged files.\00", align 1
@.str.15 = private unnamed_addr constant [7 x i8] c"rebase\00", align 1
@.str.16 = private unnamed_addr constant [58 x i8] c"Rebasing is not possible because you have unmerged files.\00", align 1
@.str.17 = private unnamed_addr constant [9 x i8] c"advice.c\00", align 1
@.str.18 = private unnamed_addr constant [31 x i8] c"Unhandled conflict reason '%s'\00", align 1
@.str.19 = private unnamed_addr constant [116 x i8] c"Fix them up in the work tree, and then use 'git add/rm <file>'\0Aas appropriate to mark resolution and make a commit.\00", align 1
@git_gettext_enabled = external global i32, align 4

; Function Attrs: nounwind uwtable
define dso_local i32 @advice_enabled(i32 noundef %0) #0 {
  %2 = alloca i32, align 4
  %3 = alloca i32, align 4
  %4 = alloca i32, align 4
  %5 = alloca i32, align 4
  store i32 %0, ptr %3, align 4, !tbaa !9
  call void @llvm.lifetime.start.p0(i64 4, ptr %4) #10
  %6 = load i32, ptr %3, align 4, !tbaa !9
  %7 = zext i32 %6 to i64
  %8 = getelementptr inbounds nuw [46 x %struct.anon], ptr @advice_setting, i64 0, i64 %7
  %9 = getelementptr inbounds nuw %struct.anon, ptr %8, i32 0, i32 1
  %10 = load i32, ptr %9, align 8, !tbaa !21
  %11 = icmp ne i32 %10, 1
  %12 = zext i1 %11 to i32
  store i32 %12, ptr %4, align 4, !tbaa !9
  %13 = load i32, ptr @advice_enabled.globally_enabled, align 4, !tbaa !9
  %14 = icmp slt i32 %13, 0
  br i1 %14, label %15, label %17

15:                                               ; preds = %1
  %16 = call i32 @git_env_bool(ptr noundef @.str.1, i32 noundef 1)
  store i32 %16, ptr @advice_enabled.globally_enabled, align 4, !tbaa !9
  br label %17

17:                                               ; preds = %15, %1
  %18 = load i32, ptr @advice_enabled.globally_enabled, align 4, !tbaa !9
  %19 = icmp ne i32 %18, 0
  br i1 %19, label %21, label %20

20:                                               ; preds = %17
  store i32 0, ptr %2, align 4
  store i32 1, ptr %5, align 4
  br label %35

21:                                               ; preds = %17
  %22 = load i32, ptr %3, align 4, !tbaa !9
  %23 = icmp eq i32 %22, 25
  br i1 %23, label %24, label %33

24:                                               ; preds = %21
  %25 = load i32, ptr %4, align 4, !tbaa !9
  %26 = icmp ne i32 %25, 0
  br i1 %26, label %27, label %30

27:                                               ; preds = %24
  %28 = call i32 @advice_enabled(i32 noundef 26)
  %29 = icmp ne i32 %28, 0
  br label %30

30:                                               ; preds = %27, %24
  %31 = phi i1 [ false, %24 ], [ %29, %27 ]
  %32 = zext i1 %31 to i32
  store i32 %32, ptr %2, align 4
  store i32 1, ptr %5, align 4
  br label %35

33:                                               ; preds = %21
  %34 = load i32, ptr %4, align 4, !tbaa !9
  store i32 %34, ptr %2, align 4
  store i32 1, ptr %5, align 4
  br label %35

35:                                               ; preds = %33, %30, %20
  call void @llvm.lifetime.end.p0(i64 4, ptr %4) #10
  %36 = load i32, ptr %2, align 4
  ret i32 %36
}

; Function Attrs: inlinehint nounwind uwtable
define internal i32 @const_error() #5 {
  ret i32 -1
}

; Function Attrs: inlinehint nounwind uwtable
define internal ptr @_(ptr noundef %0) #5 {
  %2 = alloca ptr, align 8
  %3 = alloca ptr, align 8
  store ptr %0, ptr %3, align 8, !tbaa !4
  %4 = load ptr, ptr %3, align 8, !tbaa !4
  %5 = load i8, ptr %4, align 1, !tbaa !16
  %6 = icmp ne i8 %5, 0
  br i1 %6, label %8, label %7

7:                                                ; preds = %1
  store ptr @.str, ptr %2, align 8
  br label %16

8:                                                ; preds = %1
  %9 = load i32, ptr @git_gettext_enabled, align 4, !tbaa !9
  %10 = icmp ne i32 %9, 0
  br i1 %10, label %13, label %11

11:                                               ; preds = %8
  %12 = load ptr, ptr %3, align 8, !tbaa !4
  store ptr %12, ptr %2, align 8
  br label %16

13:                                               ; preds = %8
  %14 = load ptr, ptr %3, align 8, !tbaa !4
  %15 = call ptr @dcgettext(ptr noundef null, ptr noundef %14, i32 noundef 5) #10
  store ptr %15, ptr %2, align 8
  br label %16

16:                                               ; preds = %13, %11, %7
  %17 = load ptr, ptr %2, align 8
  ret ptr %17
}

; Function Attrs: nounwind uwtable
define dso_local i32 @error_resolve_conflict(ptr noundef %0) #0 {
  %2 = alloca ptr, align 8
  store ptr %0, ptr %2, align 8, !tbaa !4
  %3 = load ptr, ptr %2, align 8, !tbaa !4
  %4 = call i32 @strcmp(ptr noundef %3, ptr noundef @.str.5) #11
  %5 = icmp ne i32 %4, 0
  br i1 %5, label %10, label %6

6:                                                ; preds = %1
  %7 = call ptr @_(ptr noundef @.str.6)
  %8 = call i32 (ptr, ...) @error(ptr noundef %7)
  %9 = call i32 @const_error()
  br label %57

10:                                               ; preds = %1
  %11 = load ptr, ptr %2, align 8, !tbaa !4
  %12 = call i32 @strcmp(ptr noundef %11, ptr noundef @.str.7) #11
  %13 = icmp ne i32 %12, 0
  br i1 %13, label %18, label %14

14:                                               ; preds = %10
  %15 = call ptr @_(ptr noundef @.str.8)
  %16 = call i32 (ptr, ...) @error(ptr noundef %15)
  %17 = call i32 @const_error()
  br label %56

18:                                               ; preds = %10
  %19 = load ptr, ptr %2, align 8, !tbaa !4
  %20 = call i32 @strcmp(ptr noundef %19, ptr noundef @.str.9) #11
  %21 = icmp ne i32 %20, 0
  br i1 %21, label %26, label %22

22:                                               ; preds = %18
  %23 = call ptr @_(ptr noundef @.str.10)
  %24 = call i32 (ptr, ...) @error(ptr noundef %23)
  %25 = call i32 @const_error()
  br label %55

26:                                               ; preds = %18
  %27 = load ptr, ptr %2, align 8, !tbaa !4
  %28 = call i32 @strcmp(ptr noundef %27, ptr noundef @.str.11) #11
  %29 = icmp ne i32 %28, 0
  br i1 %29, label %34, label %30

30:                                               ; preds = %26
  %31 = call ptr @_(ptr noundef @.str.12)
  %32 = call i32 (ptr, ...) @error(ptr noundef %31)
  %33 = call i32 @const_error()
  br label %54

34:                                               ; preds = %26
  %35 = load ptr, ptr %2, align 8, !tbaa !4
  %36 = call i32 @strcmp(ptr noundef %35, ptr noundef @.str.13) #11
  %37 = icmp ne i32 %36, 0
  br i1 %37, label %42, label %38

38:                                               ; preds = %34
  %39 = call ptr @_(ptr noundef @.str.14)
  %40 = call i32 (ptr, ...) @error(ptr noundef %39)
  %41 = call i32 @const_error()
  br label %53

42:                                               ; preds = %34
  %43 = load ptr, ptr %2, align 8, !tbaa !4
  %44 = call i32 @strcmp(ptr noundef %43, ptr noundef @.str.15) #11
  %45 = icmp ne i32 %44, 0
  br i1 %45, label %50, label %46

46:                                               ; preds = %42
  %47 = call ptr @_(ptr noundef @.str.16)
  %48 = call i32 (ptr, ...) @error(ptr noundef %47)
  %49 = call i32 @const_error()
  br label %52

50:                                               ; preds = %42
  %51 = load ptr, ptr %2, align 8, !tbaa !4
  call void (ptr, i32, ptr, ...) @BUG_fl(ptr noundef @.str.17, i32 noundef 215, ptr noundef @.str.18, ptr noundef %51) #12
  unreachable

52:                                               ; preds = %46
  br label %53

53:                                               ; preds = %52, %38
  br label %54

54:                                               ; preds = %53, %30
  br label %55

55:                                               ; preds = %54, %22
  br label %56

56:                                               ; preds = %55, %14
  br label %57

57:                                               ; preds = %56, %6
  %58 = call i32 @advice_enabled(i32 noundef 30)
  %59 = icmp ne i32 %58, 0
  br i1 %59, label %60, label %62

60:                                               ; preds = %57
  %61 = call ptr @_(ptr noundef @.str.19)
  call void (ptr, ...) @advise(ptr noundef %61)
  br label %62

62:                                               ; preds = %60, %57
  ret i32 -1
}