; Function Attrs: nounwind uwtable
define dso_local noundef i32 @error_resolve_conflict(ptr noundef %0) local_unnamed_addr #0 {
  %2 = tail call i32 @strcmp(ptr noundef nonnull dereferenceable(1) %0, ptr noundef nonnull dereferenceable(12) @.str.5) #13
  %.not = icmp eq i32 %2, 0
  br i1 %.not, label %3, label %5

3:                                                ; preds = %1
  %4 = load i32, ptr @git_gettext_enabled, align 4, !tbaa !14
  %.not4.i = icmp eq i32 %4, 0
  br i1 %.not4.i, label %_.exit, label %_.exit.sink.split

5:                                                ; preds = %1
  %6 = tail call i32 @strcmp(ptr noundef nonnull dereferenceable(1) %0, ptr noundef nonnull dereferenceable(7) @.str.7) #13
  %.not7 = icmp eq i32 %6, 0
  br i1 %.not7, label %7, label %9

7:                                                ; preds = %5
  %8 = load i32, ptr @git_gettext_enabled, align 4, !tbaa !14
  %.not4.i13 = icmp eq i32 %8, 0
  br i1 %.not4.i13, label %_.exit, label %_.exit.sink.split

9:                                                ; preds = %5
  %10 = tail call i32 @strcmp(ptr noundef nonnull dereferenceable(1) %0, ptr noundef nonnull dereferenceable(6) @.str.9) #13
  %.not8 = icmp eq i32 %10, 0
  br i1 %.not8, label %11, label %13

11:                                               ; preds = %9
  %12 = load i32, ptr @git_gettext_enabled, align 4, !tbaa !14
  %.not4.i16 = icmp eq i32 %12, 0
  br i1 %.not4.i16, label %_.exit, label %_.exit.sink.split

13:                                               ; preds = %9
  %14 = tail call i32 @strcmp(ptr noundef nonnull dereferenceable(1) %0, ptr noundef nonnull dereferenceable(5) @.str.11) #13
  %.not9 = icmp eq i32 %14, 0
  br i1 %.not9, label %15, label %17

15:                                               ; preds = %13
  %16 = load i32, ptr @git_gettext_enabled, align 4, !tbaa !14
  %.not4.i19 = icmp eq i32 %16, 0
  br i1 %.not4.i19, label %_.exit, label %_.exit.sink.split

17:                                               ; preds = %13
  %18 = tail call i32 @strcmp(ptr noundef nonnull dereferenceable(1) %0, ptr noundef nonnull dereferenceable(7) @.str.13) #13
  %.not10 = icmp eq i32 %18, 0
  br i1 %.not10, label %19, label %21

19:                                               ; preds = %17
  %20 = load i32, ptr @git_gettext_enabled, align 4, !tbaa !14
  %.not4.i22 = icmp eq i32 %20, 0
  br i1 %.not4.i22, label %_.exit, label %_.exit.sink.split

21:                                               ; preds = %17
  %22 = tail call i32 @strcmp(ptr noundef nonnull dereferenceable(1) %0, ptr noundef nonnull dereferenceable(7) @.str.15) #13
  %.not11 = icmp eq i32 %22, 0
  br i1 %.not11, label %23, label %25

23:                                               ; preds = %21
  %24 = load i32, ptr @git_gettext_enabled, align 4, !tbaa !14
  %.not4.i25 = icmp eq i32 %24, 0
  br i1 %.not4.i25, label %_.exit, label %_.exit.sink.split

25:                                               ; preds = %21
  tail call void (ptr, i32, ptr, ...) @BUG_fl(ptr noundef nonnull @.str.17, i32 noundef 215, ptr noundef nonnull @.str.18, ptr noundef nonnull %0) #15
  unreachable

_.exit.sink.split:                                ; preds = %23, %19, %15, %11, %7, %3
  %.str.16.sink = phi ptr [ @.str.6, %3 ], [ @.str.8, %7 ], [ @.str.10, %11 ], [ @.str.12, %15 ], [ @.str.14, %19 ], [ @.str.16, %23 ]
  %26 = tail call ptr @dcgettext(ptr noundef null, ptr noundef nonnull %.str.16.sink, i32 noundef 5) #12
  br label %_.exit

_.exit:                                           ; preds = %_.exit.sink.split, %23, %19, %15, %11, %7, %3
  %.0.i14.sink = phi ptr [ @.str.6, %3 ], [ @.str.8, %7 ], [ @.str.10, %11 ], [ @.str.12, %15 ], [ @.str.14, %19 ], [ @.str.16, %23 ], [ %26, %_.exit.sink.split ]
  %27 = tail call i32 (ptr, ...) @error(ptr noundef %.0.i14.sink) #12
  %28 = load i32, ptr getelementptr inbounds nuw (i8, ptr @advice_setting, i64 488), align 8, !tbaa !18
  %.not35 = icmp eq i32 %28, 1
  %29 = load i32, ptr @advice_enabled.globally_enabled, align 4, !tbaa !14
  %30 = icmp slt i32 %29, 0
  br i1 %30, label %31, label %33

31:                                               ; preds = %_.exit
  %32 = tail call i32 @git_env_bool(ptr noundef nonnull @.str.1, i32 noundef 1) #12
  store i32 %32, ptr @advice_enabled.globally_enabled, align 4, !tbaa !14
  br label %33

33:                                               ; preds = %31, %_.exit
  %.pr.i = phi i32 [ %32, %31 ], [ %29, %_.exit ]
  %.not.i = icmp eq i32 %.pr.i, 0
  %or.cond = select i1 %.not.i, i1 true, i1 %.not35
  br i1 %or.cond, label %advice_enabled.exit.thread, label %34

34:                                               ; preds = %33
  %35 = load i32, ptr @git_gettext_enabled, align 4, !tbaa !14
  %.not4.i29 = icmp eq i32 %35, 0
  br i1 %.not4.i29, label %_.exit31, label %36

36:                                               ; preds = %34
  %37 = tail call ptr @dcgettext(ptr noundef null, ptr noundef nonnull @.str.19, i32 noundef 5) #12
  br label %_.exit31

_.exit31:                                         ; preds = %34, %36
  %.0.i30 = phi ptr [ %37, %36 ], [ @.str.19, %34 ]
  tail call void (ptr, ...) @advise(ptr noundef %.0.i30)
  br label %advice_enabled.exit.thread

advice_enabled.exit.thread:                       ; preds = %33, %_.exit31
  ret i32 -1
}